; Function Attrs: nofree norecurse nosync nounwind memory(argmem: readwrite) uwtable
define internal void @TM16_SSE2(ptr noundef captures(none) %0) #2 {
  %2 = getelementptr inbounds i8, ptr %0, i64 -32
  %3 = load <16 x i8>, ptr %2, align 1, !tbaa !7
  %4 = shufflevector <16 x i8> %3, <16 x i8> <i8 0, i8 0, i8 0, i8 0, i8 0, i8 0, i8 0, i8 0, i8 poison, i8 poison, i8 poison, i8 poison, i8 poison, i8 poison, i8 poison, i8 poison>, <16 x i32> <i32 0, i32 16, i32 1, i32 17, i32 2, i32 18, i32 3, i32 19, i32 4, i32 20, i32 5, i32 21, i32 6, i32 22, i32 7, i32 23>
  %5 = shufflevector <16 x i8> %3, <16 x i8> <i8 poison, i8 poison, i8 poison, i8 poison, i8 poison, i8 poison, i8 poison, i8 poison, i8 0, i8 0, i8 0, i8 0, i8 0, i8 0, i8 0, i8 0>, <16 x i32> <i32 8, i32 24, i32 9, i32 25, i32 10, i32 26, i32 11, i32 27, i32 12, i32 28, i32 13, i32 29, i32 14, i32 30, i32 15, i32 31>
  %6 = getelementptr inbounds i8, ptr %0, i64 -33
  %7 = bitcast <16 x i8> %4 to <8 x i16>
  %8 = bitcast <16 x i8> %5 to <8 x i16>
  br label %9

9:                                                ; preds = %9, %1
  %.260.i = phi ptr [ %0, %1 ], [ %22, %9 ]
  %.25159.i = phi i32 [ 0, %1 ], [ %21, %9 ]
  %10 = getelementptr inbounds i8, ptr %.260.i, i64 -1
  %11 = load i8, ptr %10, align 1, !tbaa !7
  %12 = zext i8 %11 to i16
  %13 = load i8, ptr %6, align 1, !tbaa !7
  %14 = zext i8 %13 to i16
  %15 = sub nsw i16 %12, %14
  %16 = insertelement <8 x i16> poison, i16 %15, i64 0
  %17 = shufflevector <8 x i16> %16, <8 x i16> poison, <8 x i32> zeroinitializer
  %18 = add <8 x i16> %17, %7
  %19 = add <8 x i16> %17, %8
  %20 = tail call <16 x i8> @llvm.x86.sse2.packuswb.128(<8 x i16> %18, <8 x i16> %19)
  store <16 x i8> %20, ptr %.260.i, align 1, !tbaa !7
  %21 = add nuw nsw i32 %.25159.i, 1
  %22 = getelementptr inbounds nuw i8, ptr %.260.i, i64 32
  %exitcond64.not.i = icmp eq i32 %21, 16
  br i1 %exitcond64.not.i, label %TrueMotion_SSE2.exit, label %9, !llvm.loop !18

TrueMotion_SSE2.exit:                             ; preds = %9
  ret void
}